; Function Attrs: mustprogress uwtable
define void @_ZN15MainApplication13addRecentItemE7QStringxb(ptr noundef nonnull align 8 dereferenceable(216) %0, ptr noundef %1, i64 noundef %2, i1 noundef zeroext %3) local_unnamed_addr #3 align 2 personality ptr @__gxx_personality_v0 {
  %5 = alloca %class.QString, align 8
  %6 = zext i1 %3 to i8
  %7 = tail call noalias noundef nonnull dereferenceable(40) ptr @_Znwm(i64 noundef 40) #28
  tail call void @llvm.memset.p0.i64(ptr noundef nonnull align 8 dereferenceable(24) %7, i8 0, i64 24, i1 false)
  %8 = tail call noundef nonnull align 8 dereferenceable(24) ptr @_ZN7QStringaSERKS_(ptr noundef nonnull align 8 dereferenceable(24) %7, ptr noundef nonnull align 8 dereferenceable(24) %1) #26
  %9 = getelementptr inbounds i8, ptr %7, i64 24
  store i64 %2, ptr %9, align 8
  %10 = getelementptr inbounds i8, ptr %7, i64 32
  store i8 %6, ptr %10, align 8
  %11 = getelementptr inbounds i8, ptr %7, i64 33
  store i8 0, ptr %11, align 1
  tail call void @_ZN5QListIP19_recent_item_statusE7prependES1_(ptr noundef nonnull align 8 dereferenceable(24) @_ZL16recent_captures_, ptr noundef nonnull %7)
  %12 = load ptr, ptr %1, align 8
  store ptr %12, ptr %5, align 8
  %13 = getelementptr inbounds i8, ptr %5, i64 8
  %14 = getelementptr inbounds i8, ptr %1, i64 8
  %15 = load ptr, ptr %14, align 8
  store ptr %15, ptr %13, align 8
  %16 = getelementptr inbounds i8, ptr %5, i64 16
  %17 = getelementptr inbounds i8, ptr %1, i64 16
  %18 = load i64, ptr %17, align 8
  store i64 %18, ptr %16, align 8
  %.not.i.i.i = icmp eq ptr %12, null
  br i1 %.not.i.i.i, label %_ZN7QStringC2ERKS_.exit, label %19

19:                                               ; preds = %4
  %20 = atomicrmw add ptr %12, i32 1 seq_cst, align 4
  br label %_ZN7QStringC2ERKS_.exit

_ZN7QStringC2ERKS_.exit:                          ; preds = %4, %19
  invoke void @_ZN15MainApplication18itemStatusFinishedE7QStringxb(ptr noundef nonnull align 8 dereferenceable(216) %0, ptr noundef nonnull %5, i64 noundef %2, i1 noundef zeroext %3)
          to label %21 unwind label %26

21:                                               ; preds = %_ZN7QStringC2ERKS_.exit
  %22 = load ptr, ptr %5, align 8
  %.not.i.i.i11 = icmp eq ptr %22, null
  br i1 %.not.i.i.i11, label %_ZN7QStringD2Ev.exit, label %_ZN17QArrayDataPointerIDsE5derefEv.exit.i.i

_ZN17QArrayDataPointerIDsE5derefEv.exit.i.i:      ; preds = %21
  %23 = atomicrmw sub ptr %22, i32 1 seq_cst, align 4
  %.not.i.i = icmp eq i32 %23, 1
  br i1 %.not.i.i, label %24, label %_ZN7QStringD2Ev.exit

24:                                               ; preds = %_ZN17QArrayDataPointerIDsE5derefEv.exit.i.i
  %25 = load ptr, ptr %5, align 8
  call void @_ZN10QArrayData10deallocateEPS_xx(ptr noundef %25, i64 noundef 2, i64 noundef 8) #26
  br label %_ZN7QStringD2Ev.exit

_ZN7QStringD2Ev.exit:                             ; preds = %21, %_ZN17QArrayDataPointerIDsE5derefEv.exit.i.i, %24
  ret void

26:                                               ; preds = %_ZN7QStringC2ERKS_.exit
  %27 = landingpad { ptr, i32 }
          cleanup
  %28 = load ptr, ptr %5, align 8
  %.not.i.i.i12 = icmp eq ptr %28, null
  br i1 %.not.i.i.i12, label %_ZN7QStringD2Ev.exit15, label %_ZN17QArrayDataPointerIDsE5derefEv.exit.i.i13

_ZN17QArrayDataPointerIDsE5derefEv.exit.i.i13:    ; preds = %26
  %29 = atomicrmw sub ptr %28, i32 1 seq_cst, align 4
  %.not.i.i14 = icmp eq i32 %29, 1
  br i1 %.not.i.i14, label %30, label %_ZN7QStringD2Ev.exit15

30:                                               ; preds = %_ZN17QArrayDataPointerIDsE5derefEv.exit.i.i13
  %31 = load ptr, ptr %5, align 8
  call void @_ZN10QArrayData10deallocateEPS_xx(ptr noundef %31, i64 noundef 2, i64 noundef 8) #26
  br label %_ZN7QStringD2Ev.exit15

_ZN7QStringD2Ev.exit15:                           ; preds = %26, %_ZN17QArrayDataPointerIDsE5derefEv.exit.i.i13, %30
  resume { ptr, i32 } %27
}